; Function Attrs: nounwind uwtable
define dso_local void @scanner_finish(ptr noundef readonly captures(none) %0) local_unnamed_addr #0 {
  %2 = load ptr, ptr %0, align 8
  %3 = getelementptr inbounds nuw i8, ptr %2, i64 8
  %4 = load i64, ptr %3, align 8
  %5 = icmp ugt i64 %4, 8191
  br i1 %5, label %6, label %8

6:                                                ; preds = %1
  %7 = load ptr, ptr %2, align 8
  tail call void @pfree(ptr noundef %7) #22
  %.pre = load ptr, ptr %0, align 8
  br label %8

8:                                                ; preds = %6, %1
  %9 = phi ptr [ %.pre, %6 ], [ %2, %1 ]
  %10 = getelementptr inbounds nuw i8, ptr %9, i64 52
  %11 = load i32, ptr %10, align 4
  %12 = icmp sgt i32 %11, 8191
  br i1 %12, label %13, label %16

13:                                               ; preds = %8
  %14 = getelementptr inbounds nuw i8, ptr %9, i64 40
  %15 = load ptr, ptr %14, align 8
  tail call void @pfree(ptr noundef %15) #22
  br label %16

16:                                               ; preds = %13, %8
  ret void
}